ccopy_reg
_reconstructor
p0
(c__main__
MoveParams
p1
c__builtin__
object
p2
Ntp3
Rp4
(dp5
S'_xm'
p6
F7.0
sS'_ym'
p7
F8.0
sS'_yfr'
p8
F1.7
sS'_DataSet__changed'
p9
I00
sS'_xfr'
p10
F1.5
sS'_DataSet__comment'
p11
NsS'_freq'
p12
F60.0
sS'_DataSet__icon'
p13
V
p14
sS'_DataSet__title'
p15
S'MoveParams'
p16
sS'_vx'
p17
I30000
sS'_vy'
p18
I30000
sb.