ccopy_reg
_reconstructor
p0
(c__main__
MoveParams
p1
c__builtin__
object
p2
Ntp3
Rp4
(dp5
S'_outer_r'
p6
F0.5
sS'_DataSet__changed'
p7
I00
sS'_DataSet__comment'
p8
NsS'_DataSet__icon'
p9
V
p10
sS'_DataSet__title'
p11
S'MoveParams'
p12
sS'_inner_r'
p13
F2.0
sS'_vy'
p14
I25000
sS'_fr1'
p15
F0.8
sS'_vx'
p16
I25000
sS'_fr2'
p17
F0.11
sb.